; Function Attrs: mustprogress uwtable
define void @_ZN5arrow12ArrayVisitor5VisitERKNS_12NumericArrayINS_8Int8TypeEEE(ptr dead_on_unwind noalias writable sret(%"class.arrow::Status") align 8 %0, ptr nonnull readnone align 8 captures(none) %1, ptr noundef nonnull readonly align 8 captures(none) dereferenceable(48) %2) unnamed_addr #1 align 2 personality ptr @__gxx_personality_v0 {
  %4 = alloca %"class.std::__cxx11::basic_string", align 8
  call void @llvm.lifetime.start.p0(i64 32, ptr nonnull %4) #8
  %5 = getelementptr inbounds nuw i8, ptr %2, i64 8
  %6 = load ptr, ptr %5, align 8, !tbaa !32
  %7 = load ptr, ptr %6, align 8, !tbaa !38
  %8 = load ptr, ptr %7, align 8, !tbaa !41
  %9 = getelementptr inbounds nuw i8, ptr %8, i64 32
  %10 = load ptr, ptr %9, align 8
  call void %10(ptr dead_on_unwind nonnull writable sret(%"class.std::__cxx11::basic_string") align 8 %4, ptr noundef nonnull align 8 dereferenceable(72) %7, i1 noundef zeroext false)
  invoke void @_ZN5arrow6Status8FromArgsIJNSt7__cxx1112basic_stringIcSt11char_traitsIcESaIcEEEEEES0_NS_10StatusCodeEDpOT_(ptr dead_on_unwind writable sret(%"class.arrow::Status") align 8 %0, i8 noundef signext 10, ptr noundef nonnull align 8 dereferenceable(32) %4)
          to label %_ZN5arrow6Status14NotImplementedIJNSt7__cxx1112basic_stringIcSt11char_traitsIcESaIcEEEEEES0_DpOT_.exit unwind label %19

_ZN5arrow6Status14NotImplementedIJNSt7__cxx1112basic_stringIcSt11char_traitsIcESaIcEEEEEES0_DpOT_.exit: ; preds = %3
  %11 = load ptr, ptr %4, align 8, !tbaa !43
  %12 = getelementptr inbounds nuw i8, ptr %4, i64 16
  %13 = icmp eq ptr %11, %12
  br i1 %13, label %_ZNKSt7__cxx1112basic_stringIcSt11char_traitsIcESaIcEE11_M_is_localEv.exit.thread.i.i, label %_ZNKSt7__cxx1112basic_stringIcSt11char_traitsIcESaIcEE11_M_is_localEv.exit.i.i

_ZNKSt7__cxx1112basic_stringIcSt11char_traitsIcESaIcEE11_M_is_localEv.exit.thread.i.i: ; preds = %_ZN5arrow6Status14NotImplementedIJNSt7__cxx1112basic_stringIcSt11char_traitsIcESaIcEEEEEES0_DpOT_.exit
  %14 = getelementptr inbounds nuw i8, ptr %4, i64 8
  %15 = load i64, ptr %14, align 8, !tbaa !47
  %16 = icmp ult i64 %15, 16
  call void @llvm.assume(i1 %16)
  br label %_ZNSt7__cxx1112basic_stringIcSt11char_traitsIcESaIcEED2Ev.exit

_ZNKSt7__cxx1112basic_stringIcSt11char_traitsIcESaIcEE11_M_is_localEv.exit.i.i: ; preds = %_ZN5arrow6Status14NotImplementedIJNSt7__cxx1112basic_stringIcSt11char_traitsIcESaIcEEEEEES0_DpOT_.exit
  %17 = load i64, ptr %12, align 8, !tbaa !48
  %18 = add i64 %17, 1
  call void @_ZdlPvm(ptr noundef %11, i64 noundef %18) #9
  br label %_ZNSt7__cxx1112basic_stringIcSt11char_traitsIcESaIcEED2Ev.exit

_ZNSt7__cxx1112basic_stringIcSt11char_traitsIcESaIcEED2Ev.exit: ; preds = %_ZNKSt7__cxx1112basic_stringIcSt11char_traitsIcESaIcEE11_M_is_localEv.exit.thread.i.i, %_ZNKSt7__cxx1112basic_stringIcSt11char_traitsIcESaIcEE11_M_is_localEv.exit.i.i
  call void @llvm.lifetime.end.p0(i64 32, ptr nonnull %4) #8
  ret void

19:                                               ; preds = %3
  %20 = landingpad { ptr, i32 }
          cleanup
  %21 = load ptr, ptr %4, align 8, !tbaa !43
  %22 = getelementptr inbounds nuw i8, ptr %4, i64 16
  %23 = icmp eq ptr %21, %22
  br i1 %23, label %_ZNKSt7__cxx1112basic_stringIcSt11char_traitsIcESaIcEE11_M_is_localEv.exit.thread.i.i3, label %_ZNKSt7__cxx1112basic_stringIcSt11char_traitsIcESaIcEE11_M_is_localEv.exit.i.i2

_ZNKSt7__cxx1112basic_stringIcSt11char_traitsIcESaIcEE11_M_is_localEv.exit.thread.i.i3: ; preds = %19
  %24 = getelementptr inbounds nuw i8, ptr %4, i64 8
  %25 = load i64, ptr %24, align 8, !tbaa !47
  %26 = icmp ult i64 %25, 16
  call void @llvm.assume(i1 %26)
  br label %_ZNSt7__cxx1112basic_stringIcSt11char_traitsIcESaIcEED2Ev.exit4

_ZNKSt7__cxx1112basic_stringIcSt11char_traitsIcESaIcEE11_M_is_localEv.exit.i.i2: ; preds = %19
  %27 = load i64, ptr %22, align 8, !tbaa !48
  %28 = add i64 %27, 1
  call void @_ZdlPvm(ptr noundef %21, i64 noundef %28) #9
  br label %_ZNSt7__cxx1112basic_stringIcSt11char_traitsIcESaIcEED2Ev.exit4

_ZNSt7__cxx1112basic_stringIcSt11char_traitsIcESaIcEED2Ev.exit4: ; preds = %_ZNKSt7__cxx1112basic_stringIcSt11char_traitsIcESaIcEE11_M_is_localEv.exit.thread.i.i3, %_ZNKSt7__cxx1112basic_stringIcSt11char_traitsIcESaIcEE11_M_is_localEv.exit.i.i2
  call void @llvm.lifetime.end.p0(i64 32, ptr nonnull %4) #8
  resume { ptr, i32 } %20
}